target datalayout = "e-m:e-p270:32:32-p271:32:32-p272:64:64-i64:64-i128:128-f80:128-n8:16:32:64-S128"
target triple = "x86_64-pc-linux-gnu"

%struct.pmix_thread_t = type { %struct.pmix_object_t, ptr, ptr, i64 }
%struct.pmix_object_t = type { %union.pthread_mutex_t, ptr, i32, %struct.pmix_tma }
%union.pthread_mutex_t = type { %struct.__pthread_mutex_s }
%struct.__pthread_mutex_s = type { i32, i32, i32, i32, i32, i16, i16, %struct.__pthread_internal_list }
%struct.__pthread_internal_list = type { ptr, ptr }
%struct.pmix_tma = type { ptr, ptr, ptr, ptr, ptr, ptr, ptr, ptr }

; Function Attrs: nounwind uwtable
define i32 @pmix_thread_join(ptr noundef %0, ptr noundef %1) #0 {
  %3 = alloca ptr, align 8
  %4 = alloca ptr, align 8
  %5 = alloca i32, align 4
  store ptr %0, ptr %3, align 8, !tbaa !3
  store ptr %1, ptr %4, align 8, !tbaa !17
  call void @llvm.lifetime.start.p0(i64 4, ptr %5) #9
  %6 = load ptr, ptr %3, align 8, !tbaa !3
  %7 = getelementptr inbounds nuw %struct.pmix_thread_t, ptr %6, i32 0, i32 3
  %8 = load i64, ptr %7, align 8, !tbaa !15
  %9 = load ptr, ptr %4, align 8, !tbaa !17
  %10 = call i32 @pthread_join(i64 noundef %8, ptr noundef %9)
  store i32 %10, ptr %5, align 4, !tbaa !16
  %11 = load ptr, ptr %3, align 8, !tbaa !3
  %12 = getelementptr inbounds nuw %struct.pmix_thread_t, ptr %11, i32 0, i32 3
  store i64 -1, ptr %12, align 8, !tbaa !15
  %13 = load i32, ptr %5, align 4, !tbaa !16
  %14 = icmp eq i32 %13, 0
  %15 = select i1 %14, i32 0, i32 -1
  call void @llvm.lifetime.end.p0(i64 4, ptr %5) #9
  ret i32 %15
}