; Function Attrs: nounwind uwtable
define range(i32 -1, 1) i32 @pmix_thread_join(ptr noundef captures(none) %0, ptr noundef %1) local_unnamed_addr #1 {
  %3 = getelementptr inbounds nuw i8, ptr %0, i64 136
  %4 = load i64, ptr %3, align 8, !tbaa !13
  %5 = tail call i32 @pthread_join(i64 noundef %4, ptr noundef %1) #11
  store i64 -1, ptr %3, align 8, !tbaa !13
  %6 = icmp ne i32 %5, 0
  %7 = sext i1 %6 to i32
  ret i32 %7
}